; Function Attrs: nounwind uwtable
define hidden i32 @_ir_SWITCH(ptr nocapture noundef %0, i32 noundef %1) local_unnamed_addr #0 {
  %3 = getelementptr inbounds i8, ptr %0, i64 248
  %4 = load i32, ptr %3, align 8
  %5 = getelementptr inbounds i8, ptr %0, i64 8
  %6 = load i32, ptr %5, align 8
  %7 = getelementptr inbounds i8, ptr %0, i64 12
  %8 = load i32, ptr %7, align 4
  %.not.i.i.i = icmp slt i32 %6, %8
  %.pre.i.i = load ptr, ptr %0, align 8
  br i1 %.not.i.i.i, label %ir_emit2.exit, label %9

9:                                                ; preds = %2
  %10 = getelementptr inbounds i8, ptr %0, i64 20
  %11 = load i32, ptr %10, align 4
  %12 = icmp slt i32 %8, 4096
  %13 = shl nsw i32 %8, 1
  %14 = icmp ult i32 %8, 8192
  %15 = add nuw nsw i32 %8, 4096
  %spec.select.i.i.i.i = select i1 %14, i32 8192, i32 %15
  %.sink.i.i.i.i = select i1 %12, i32 %13, i32 %spec.select.i.i.i.i
  store i32 %.sink.i.i.i.i, ptr %7, align 4
  %16 = sext i32 %11 to i64
  %17 = sub nsw i64 0, %16
  %18 = getelementptr inbounds %struct._ir_insn, ptr %.pre.i.i, i64 %17
  %19 = add nsw i32 %11, %.sink.i.i.i.i
  %20 = sext i32 %19 to i64
  %21 = shl nsw i64 %20, 4
  %22 = tail call ptr @_erealloc(ptr noundef %18, i64 noundef %21) #24
  %23 = load i32, ptr %10, align 4
  %24 = sext i32 %23 to i64
  %25 = getelementptr inbounds %struct._ir_insn, ptr %22, i64 %24
  store ptr %25, ptr %0, align 8
  br label %ir_emit2.exit

ir_emit2.exit:                                    ; preds = %2, %9
  %26 = phi ptr [ %.pre.i.i, %2 ], [ %25, %9 ]
  %27 = add nsw i32 %6, 1
  store i32 %27, ptr %5, align 8
  %28 = sext i32 %6 to i64
  %29 = getelementptr inbounds %struct._ir_insn, ptr %26, i64 %28
  store i32 101, ptr %29, align 8
  %30 = getelementptr inbounds i8, ptr %29, i64 4
  store i32 %4, ptr %30, align 4
  %31 = getelementptr inbounds i8, ptr %29, i64 8
  store i32 %1, ptr %31, align 8
  %32 = getelementptr inbounds i8, ptr %29, i64 12
  store i32 0, ptr %32, align 4
  store i32 0, ptr %3, align 8
  ret i32 %6
}